target datalayout = "e-m:e-p270:32:32-p271:32:32-p272:64:64-i64:64-i128:128-f80:128-n8:16:32:64-S128"
target triple = "x86_64-pc-linux-gnu"

%struct.AllocSetContext = type { %struct.MemoryContextData, ptr, [11 x ptr], i32, i32, i32, i32, i32 }
%struct.MemoryContextData = type { i32, i8, i8, i64, ptr, ptr, ptr, ptr, ptr, ptr, ptr, ptr }
%struct.AllocBlockData = type { ptr, ptr, ptr, ptr, ptr }
%struct.AllocFreeListLink = type { ptr }
%struct.Node = type { i32 }
%struct.MemoryChunk = type { i64 }

@.str.2 = private unnamed_addr constant [7 x i8] c"aset.c\00", align 1
@.str.3 = private unnamed_addr constant [41 x i8] c"could not find block containing chunk %p\00", align 1
@__func__.AllocSetFree = private unnamed_addr constant [13 x i8] c"AllocSetFree\00", align 1

; Function Attrs: inlinehint nounwind uwtable
define internal i64 @MemoryChunkGetValue(ptr noundef %0) #8 {
  %2 = alloca ptr, align 8
  store ptr %0, ptr %2, align 8
  %3 = load ptr, ptr %2, align 8
  %4 = getelementptr inbounds nuw %struct.MemoryChunk, ptr %3, i32 0, i32 0
  %5 = load i64, ptr %4, align 8
  %6 = lshr i64 %5, 5
  %7 = and i64 %6, 1073741823
  ret i64 %7
}

; Function Attrs: inlinehint nounwind uwtable
define internal ptr @MemoryChunkGetBlock(ptr noundef %0) #8 {
  %2 = alloca ptr, align 8
  store ptr %0, ptr %2, align 8
  %3 = load ptr, ptr %2, align 8
  %4 = load ptr, ptr %2, align 8
  %5 = getelementptr inbounds nuw %struct.MemoryChunk, ptr %4, i32 0, i32 0
  %6 = load i64, ptr %5, align 8
  %7 = lshr i64 %6, 34
  %8 = and i64 %7, 1073741822
  %9 = sub i64 0, %8
  %10 = getelementptr inbounds i8, ptr %3, i64 %9
  ret ptr %10
}

; Function Attrs: inlinehint nounwind uwtable
define internal zeroext i1 @MemoryChunkIsExternal(ptr noundef %0) #8 {
  %2 = alloca ptr, align 8
  store ptr %0, ptr %2, align 8
  %3 = load ptr, ptr %2, align 8
  %4 = getelementptr inbounds nuw %struct.MemoryChunk, ptr %3, i32 0, i32 0
  %5 = load i64, ptr %4, align 8
  %6 = and i64 %5, 16
  %7 = icmp ne i64 %6, 0
  ret i1 %7
}

; Function Attrs: nounwind uwtable
define dso_local void @AllocSetFree(ptr noundef %0) #0 {
  %2 = alloca ptr, align 8
  %3 = alloca ptr, align 8
  %4 = alloca ptr, align 8
  %5 = alloca ptr, align 8
  %6 = alloca ptr, align 8
  %7 = alloca i32, align 4
  %8 = alloca ptr, align 8
  store ptr %0, ptr %2, align 8
  call void @llvm.lifetime.start.p0(i64 8, ptr %3) #14
  call void @llvm.lifetime.start.p0(i64 8, ptr %4) #14
  %9 = load ptr, ptr %2, align 8
  %10 = getelementptr inbounds i8, ptr %9, i64 -8
  store ptr %10, ptr %4, align 8
  br label %11

11:                                               ; preds = %1
  br label %12

12:                                               ; preds = %11
  br label %13

13:                                               ; preds = %12
  %14 = load ptr, ptr %4, align 8
  %15 = call zeroext i1 @MemoryChunkIsExternal(ptr noundef %14)
  br i1 %15, label %16, label %102

16:                                               ; preds = %13
  call void @llvm.lifetime.start.p0(i64 8, ptr %5) #14
  %17 = load ptr, ptr %4, align 8
  %18 = getelementptr inbounds i8, ptr %17, i64 -40
  store ptr %18, ptr %5, align 8
  %19 = load ptr, ptr %5, align 8
  %20 = icmp ne ptr %19, null
  br i1 %20, label %21, label %41

21:                                               ; preds = %16
  %22 = load ptr, ptr %5, align 8
  %23 = getelementptr inbounds nuw %struct.AllocBlockData, ptr %22, i32 0, i32 0
  %24 = load ptr, ptr %23, align 8
  %25 = icmp ne ptr %24, null
  br i1 %25, label %26, label %41

26:                                               ; preds = %21
  %27 = load ptr, ptr %5, align 8
  %28 = getelementptr inbounds nuw %struct.AllocBlockData, ptr %27, i32 0, i32 0
  %29 = load ptr, ptr %28, align 8
  %30 = getelementptr inbounds nuw %struct.Node, ptr %29, i32 0, i32 0
  %31 = load i32, ptr %30, align 4
  %32 = icmp eq i32 %31, 473
  br i1 %32, label %33, label %41

33:                                               ; preds = %26
  %34 = load ptr, ptr %5, align 8
  %35 = getelementptr inbounds nuw %struct.AllocBlockData, ptr %34, i32 0, i32 3
  %36 = load ptr, ptr %35, align 8
  %37 = load ptr, ptr %5, align 8
  %38 = getelementptr inbounds nuw %struct.AllocBlockData, ptr %37, i32 0, i32 4
  %39 = load ptr, ptr %38, align 8
  %40 = icmp ne ptr %36, %39
  br i1 %40, label %41, label %53

41:                                               ; preds = %33, %26, %21, %16
  br label %42

42:                                               ; preds = %41
  br i1 true, label %43, label %45

43:                                               ; preds = %42
  %44 = call zeroext i1 @errstart_cold(i32 noundef 21, ptr noundef null) #16
  br i1 %44, label %47, label %50

45:                                               ; preds = %42
  %46 = call zeroext i1 @errstart(i32 noundef 21, ptr noundef null)
  br i1 %46, label %47, label %50

47:                                               ; preds = %45, %43
  %48 = load ptr, ptr %4, align 8
  %49 = call i32 (ptr, ...) @errmsg_internal(ptr noundef @.str.3, ptr noundef %48)
  call void @errfinish(ptr noundef @.str.2, i32 noundef 1080, ptr noundef @__func__.AllocSetFree)
  br label %50

50:                                               ; preds = %47, %45, %43
  unreachable

51:                                               ; No predecessors!
  br label %52

52:                                               ; preds = %51
  br label %53

53:                                               ; preds = %52, %33
  %54 = load ptr, ptr %5, align 8
  %55 = getelementptr inbounds nuw %struct.AllocBlockData, ptr %54, i32 0, i32 0
  %56 = load ptr, ptr %55, align 8
  store ptr %56, ptr %3, align 8
  %57 = load ptr, ptr %5, align 8
  %58 = getelementptr inbounds nuw %struct.AllocBlockData, ptr %57, i32 0, i32 1
  %59 = load ptr, ptr %58, align 8
  %60 = icmp ne ptr %59, null
  br i1 %60, label %61, label %69

61:                                               ; preds = %53
  %62 = load ptr, ptr %5, align 8
  %63 = getelementptr inbounds nuw %struct.AllocBlockData, ptr %62, i32 0, i32 2
  %64 = load ptr, ptr %63, align 8
  %65 = load ptr, ptr %5, align 8
  %66 = getelementptr inbounds nuw %struct.AllocBlockData, ptr %65, i32 0, i32 1
  %67 = load ptr, ptr %66, align 8
  %68 = getelementptr inbounds nuw %struct.AllocBlockData, ptr %67, i32 0, i32 2
  store ptr %64, ptr %68, align 8
  br label %75

69:                                               ; preds = %53
  %70 = load ptr, ptr %5, align 8
  %71 = getelementptr inbounds nuw %struct.AllocBlockData, ptr %70, i32 0, i32 2
  %72 = load ptr, ptr %71, align 8
  %73 = load ptr, ptr %3, align 8
  %74 = getelementptr inbounds nuw %struct.AllocSetContext, ptr %73, i32 0, i32 1
  store ptr %72, ptr %74, align 8
  br label %75

75:                                               ; preds = %69, %61
  %76 = load ptr, ptr %5, align 8
  %77 = getelementptr inbounds nuw %struct.AllocBlockData, ptr %76, i32 0, i32 2
  %78 = load ptr, ptr %77, align 8
  %79 = icmp ne ptr %78, null
  br i1 %79, label %80, label %88

80:                                               ; preds = %75
  %81 = load ptr, ptr %5, align 8
  %82 = getelementptr inbounds nuw %struct.AllocBlockData, ptr %81, i32 0, i32 1
  %83 = load ptr, ptr %82, align 8
  %84 = load ptr, ptr %5, align 8
  %85 = getelementptr inbounds nuw %struct.AllocBlockData, ptr %84, i32 0, i32 2
  %86 = load ptr, ptr %85, align 8
  %87 = getelementptr inbounds nuw %struct.AllocBlockData, ptr %86, i32 0, i32 1
  store ptr %83, ptr %87, align 8
  br label %88

88:                                               ; preds = %80, %75
  %89 = load ptr, ptr %5, align 8
  %90 = getelementptr inbounds nuw %struct.AllocBlockData, ptr %89, i32 0, i32 4
  %91 = load ptr, ptr %90, align 8
  %92 = load ptr, ptr %5, align 8
  %93 = ptrtoint ptr %91 to i64
  %94 = ptrtoint ptr %92 to i64
  %95 = sub i64 %93, %94
  %96 = load ptr, ptr %3, align 8
  %97 = getelementptr inbounds nuw %struct.AllocSetContext, ptr %96, i32 0, i32 0
  %98 = getelementptr inbounds nuw %struct.MemoryContextData, ptr %97, i32 0, i32 3
  %99 = load i64, ptr %98, align 8
  %100 = sub i64 %99, %95
  store i64 %100, ptr %98, align 8
  %101 = load ptr, ptr %5, align 8
  call void @free(ptr noundef %101) #14
  call void @llvm.lifetime.end.p0(i64 8, ptr %5) #14
  br label %133

102:                                              ; preds = %13
  call void @llvm.lifetime.start.p0(i64 8, ptr %6) #14
  %103 = load ptr, ptr %4, align 8
  %104 = call ptr @MemoryChunkGetBlock(ptr noundef %103)
  store ptr %104, ptr %6, align 8
  call void @llvm.lifetime.start.p0(i64 4, ptr %7) #14
  call void @llvm.lifetime.start.p0(i64 8, ptr %8) #14
  %105 = load ptr, ptr %6, align 8
  %106 = getelementptr inbounds nuw %struct.AllocBlockData, ptr %105, i32 0, i32 0
  %107 = load ptr, ptr %106, align 8
  store ptr %107, ptr %3, align 8
  %108 = load ptr, ptr %4, align 8
  %109 = call i64 @MemoryChunkGetValue(ptr noundef %108)
  %110 = trunc i64 %109 to i32
  store i32 %110, ptr %7, align 4
  %111 = load ptr, ptr %4, align 8
  %112 = getelementptr inbounds nuw i8, ptr %111, i64 8
  store ptr %112, ptr %8, align 8
  br label %113

113:                                              ; preds = %102
  br label %114

114:                                              ; preds = %113
  br label %115

115:                                              ; preds = %114
  %116 = load ptr, ptr %3, align 8
  %117 = getelementptr inbounds nuw %struct.AllocSetContext, ptr %116, i32 0, i32 2
  %118 = load i32, ptr %7, align 4
  %119 = sext i32 %118 to i64
  %120 = getelementptr inbounds [11 x ptr], ptr %117, i64 0, i64 %119
  %121 = load ptr, ptr %120, align 8
  %122 = load ptr, ptr %8, align 8
  %123 = getelementptr inbounds nuw %struct.AllocFreeListLink, ptr %122, i32 0, i32 0
  store ptr %121, ptr %123, align 8
  br label %124

124:                                              ; preds = %115
  br label %125

125:                                              ; preds = %124
  br label %126

126:                                              ; preds = %125
  %127 = load ptr, ptr %4, align 8
  %128 = load ptr, ptr %3, align 8
  %129 = getelementptr inbounds nuw %struct.AllocSetContext, ptr %128, i32 0, i32 2
  %130 = load i32, ptr %7, align 4
  %131 = sext i32 %130 to i64
  %132 = getelementptr inbounds [11 x ptr], ptr %129, i64 0, i64 %131
  store ptr %127, ptr %132, align 8
  call void @llvm.lifetime.end.p0(i64 8, ptr %8) #14
  call void @llvm.lifetime.end.p0(i64 4, ptr %7) #14
  call void @llvm.lifetime.end.p0(i64 8, ptr %6) #14
  br label %133

133:                                              ; preds = %126, %88
  call void @llvm.lifetime.end.p0(i64 8, ptr %4) #14
  call void @llvm.lifetime.end.p0(i64 8, ptr %3) #14
  ret void
}