; Function Attrs: nounwind uwtable
define dso_local void @AllocSetFree(ptr noundef %0) local_unnamed_addr #0 {
  %2 = getelementptr inbounds i8, ptr %0, i64 -8
  %.val = load i64, ptr %2, align 8
  %3 = and i64 %.val, 16
  %.not37 = icmp eq i64 %3, 0
  br i1 %.not37, label %38, label %4

4:                                                ; preds = %1
  %5 = getelementptr inbounds i8, ptr %0, i64 -48
  %6 = load ptr, ptr %5, align 8
  %.not = icmp eq ptr %6, null
  br i1 %.not, label %15, label %7

7:                                                ; preds = %4
  %8 = load i32, ptr %6, align 4
  %9 = icmp eq i32 %8, 473
  br i1 %9, label %10, label %15

10:                                               ; preds = %7
  %11 = getelementptr inbounds i8, ptr %0, i64 -24
  %12 = load ptr, ptr %11, align 8
  %13 = getelementptr inbounds i8, ptr %0, i64 -16
  %14 = load ptr, ptr %13, align 8
  %.not33 = icmp eq ptr %12, %14
  br i1 %.not33, label %18, label %15

15:                                               ; preds = %10, %7, %4
  %16 = tail call zeroext i1 @errstart_cold(i32 noundef 21, ptr noundef null) #17
  tail call void @llvm.assume(i1 %16)
  %17 = tail call i32 (ptr, ...) @errmsg_internal(ptr noundef nonnull @.str.3, ptr noundef nonnull %2) #15
  tail call void @errfinish(ptr noundef nonnull @.str.2, i32 noundef 1080, ptr noundef nonnull @__func__.AllocSetFree) #15
  unreachable

18:                                               ; preds = %10
  %19 = getelementptr inbounds i8, ptr %0, i64 -40
  %20 = load ptr, ptr %19, align 8
  %.not34 = icmp eq ptr %20, null
  %21 = getelementptr inbounds i8, ptr %0, i64 -32
  %22 = load ptr, ptr %21, align 8
  br i1 %.not34, label %25, label %23

23:                                               ; preds = %18
  %24 = getelementptr inbounds nuw i8, ptr %20, i64 16
  store ptr %22, ptr %24, align 8
  br label %27

25:                                               ; preds = %18
  %26 = getelementptr inbounds nuw i8, ptr %6, i64 80
  store ptr %22, ptr %26, align 8
  br label %27

27:                                               ; preds = %25, %23
  %.not35 = icmp eq ptr %22, null
  br i1 %.not35, label %31, label %28

28:                                               ; preds = %27
  %29 = load ptr, ptr %19, align 8
  %30 = getelementptr inbounds nuw i8, ptr %22, i64 8
  store ptr %29, ptr %30, align 8
  br label %31

31:                                               ; preds = %28, %27
  %32 = load ptr, ptr %13, align 8
  %33 = ptrtoint ptr %32 to i64
  %34 = ptrtoint ptr %5 to i64
  %.neg = sub i64 %34, %33
  %35 = getelementptr inbounds nuw i8, ptr %6, i64 8
  %36 = load i64, ptr %35, align 8
  %37 = add i64 %.neg, %36
  store i64 %37, ptr %35, align 8
  tail call void @free(ptr noundef nonnull %5) #15
  br label %49

38:                                               ; preds = %1
  %39 = lshr i64 %.val, 34
  %40 = and i64 %39, 1073741822
  %41 = sub nsw i64 0, %40
  %42 = getelementptr inbounds i8, ptr %2, i64 %41
  %43 = load ptr, ptr %42, align 8
  %44 = lshr i64 %.val, 5
  %45 = and i64 %44, 1073741823
  %46 = getelementptr inbounds nuw i8, ptr %43, i64 88
  %47 = getelementptr inbounds nuw [11 x ptr], ptr %46, i64 0, i64 %45
  %48 = load ptr, ptr %47, align 8
  store ptr %48, ptr %0, align 8
  store ptr %2, ptr %47, align 8
  br label %49

49:                                               ; preds = %38, %31
  ret void
}